target datalayout = "e-m:e-p270:32:32-p271:32:32-p272:64:64-i64:64-i128:128-f80:128-n8:16:32:64-S128"
target triple = "x86_64-pc-linux-gnu"

; Function Attrs: mustprogress nounwind uwtable
define internal noundef i32 @_ZL14stbi__bitcountj(i32 noundef %0) #0 {
  %2 = alloca i32, align 4
  store i32 %0, ptr %2, align 4, !tbaa !11
  %3 = load i32, ptr %2, align 4, !tbaa !11
  %4 = and i32 %3, 1431655765
  %5 = load i32, ptr %2, align 4, !tbaa !11
  %6 = lshr i32 %5, 1
  %7 = and i32 %6, 1431655765
  %8 = add i32 %4, %7
  store i32 %8, ptr %2, align 4, !tbaa !11
  %9 = load i32, ptr %2, align 4, !tbaa !11
  %10 = and i32 %9, 858993459
  %11 = load i32, ptr %2, align 4, !tbaa !11
  %12 = lshr i32 %11, 2
  %13 = and i32 %12, 858993459
  %14 = add i32 %10, %13
  store i32 %14, ptr %2, align 4, !tbaa !11
  %15 = load i32, ptr %2, align 4, !tbaa !11
  %16 = load i32, ptr %2, align 4, !tbaa !11
  %17 = lshr i32 %16, 4
  %18 = add i32 %15, %17
  %19 = and i32 %18, 252645135
  store i32 %19, ptr %2, align 4, !tbaa !11
  %20 = load i32, ptr %2, align 4, !tbaa !11
  %21 = load i32, ptr %2, align 4, !tbaa !11
  %22 = lshr i32 %21, 8
  %23 = add i32 %20, %22
  store i32 %23, ptr %2, align 4, !tbaa !11
  %24 = load i32, ptr %2, align 4, !tbaa !11
  %25 = load i32, ptr %2, align 4, !tbaa !11
  %26 = lshr i32 %25, 16
  %27 = add i32 %24, %26
  store i32 %27, ptr %2, align 4, !tbaa !11
  %28 = load i32, ptr %2, align 4, !tbaa !11
  %29 = and i32 %28, 255
  ret i32 %29
}