; Function Attrs: mustprogress nofree norecurse nosync nounwind willreturn memory(none) uwtable
define internal fastcc noundef range(i32 0, 64) i32 @_ZL14stbi__bitcountj(i32 noundef %0) unnamed_addr #17 {
  %2 = and i32 %0, 1431655765
  %3 = lshr i32 %0, 1
  %4 = and i32 %3, 1431655765
  %5 = add nuw i32 %4, %2
  %6 = and i32 %5, 858993459
  %7 = lshr i32 %5, 2
  %8 = and i32 %7, 858993459
  %9 = add nuw nsw i32 %8, %6
  %10 = lshr i32 %9, 4
  %11 = add nuw nsw i32 %10, %9
  %12 = and i32 %11, 252645135
  %13 = lshr i32 %12, 8
  %14 = add nuw nsw i32 %13, %12
  %15 = lshr i32 %14, 16
  %16 = add nuw nsw i32 %15, %14
  %17 = and i32 %16, 63
  ret i32 %17
}